target datalayout = "e-m:e-p270:32:32-p271:32:32-p272:64:64-i64:64-i128:128-f80:128-n8:16:32:64-S128"
target triple = "x86_64-pc-linux-gnu"

@_prte_crc_table = internal global [256 x i32] zeroinitializer, align 16
@_prte_crc_table_initialized = internal global i8 0, align 1

; Function Attrs: nounwind uwtable
define void @prte_initialize_crc_table() #0 {
  %1 = alloca i32, align 4
  %2 = alloca i32, align 4
  %3 = alloca i32, align 4
  call void @llvm.lifetime.start.p0(i64 4, ptr %1) #3
  call void @llvm.lifetime.start.p0(i64 4, ptr %2) #3
  call void @llvm.lifetime.start.p0(i64 4, ptr %3) #3
  store i32 0, ptr %1, align 4, !tbaa !27
  br label %4

4:                                                ; preds = %33, %0
  %5 = load i32, ptr %1, align 4, !tbaa !27
  %6 = icmp slt i32 %5, 256
  br i1 %6, label %7, label %36

7:                                                ; preds = %4
  %8 = load i32, ptr %1, align 4, !tbaa !27
  %9 = shl i32 %8, 24
  store i32 %9, ptr %3, align 4, !tbaa !27
  store i32 0, ptr %2, align 4, !tbaa !27
  br label %10

10:                                               ; preds = %25, %7
  %11 = load i32, ptr %2, align 4, !tbaa !27
  %12 = icmp slt i32 %11, 8
  br i1 %12, label %13, label %28

13:                                               ; preds = %10
  %14 = load i32, ptr %3, align 4, !tbaa !27
  %15 = and i32 %14, -2147483648
  %16 = icmp ne i32 %15, 0
  br i1 %16, label %17, label %21

17:                                               ; preds = %13
  %18 = load i32, ptr %3, align 4, !tbaa !27
  %19 = shl i32 %18, 1
  %20 = xor i32 %19, 79764919
  store i32 %20, ptr %3, align 4, !tbaa !27
  br label %24

21:                                               ; preds = %13
  %22 = load i32, ptr %3, align 4, !tbaa !27
  %23 = shl i32 %22, 1
  store i32 %23, ptr %3, align 4, !tbaa !27
  br label %24

24:                                               ; preds = %21, %17
  br label %25

25:                                               ; preds = %24
  %26 = load i32, ptr %2, align 4, !tbaa !27
  %27 = add nsw i32 %26, 1
  store i32 %27, ptr %2, align 4, !tbaa !27
  br label %10, !llvm.loop !52

28:                                               ; preds = %10
  %29 = load i32, ptr %3, align 4, !tbaa !27
  %30 = load i32, ptr %1, align 4, !tbaa !27
  %31 = sext i32 %30 to i64
  %32 = getelementptr inbounds [256 x i32], ptr @_prte_crc_table, i64 0, i64 %31
  store i32 %29, ptr %32, align 4, !tbaa !27
  br label %33

33:                                               ; preds = %28
  %34 = load i32, ptr %1, align 4, !tbaa !27
  %35 = add nsw i32 %34, 1
  store i32 %35, ptr %1, align 4, !tbaa !27
  br label %4, !llvm.loop !53

36:                                               ; preds = %4
  store i8 1, ptr @_prte_crc_table_initialized, align 1, !tbaa !54
  call void @llvm.lifetime.end.p0(i64 4, ptr %3) #3
  call void @llvm.lifetime.end.p0(i64 4, ptr %2) #3
  call void @llvm.lifetime.end.p0(i64 4, ptr %1) #3
  ret void
}

; Function Attrs: nounwind uwtable
define i32 @prte_bcopy_uicrc_partial(ptr noundef %0, ptr noundef %1, i64 noundef %2, i64 noundef %3, i32 noundef %4) #0 {
  %6 = alloca ptr, align 8
  %7 = alloca ptr, align 8
  %8 = alloca i64, align 8
  %9 = alloca i64, align 8
  %10 = alloca i32, align 4
  %11 = alloca i64, align 8
  %12 = alloca i32, align 4
  %13 = alloca i32, align 4
  %14 = alloca i8, align 1
  %15 = alloca i32, align 4
  %16 = alloca ptr, align 8
  %17 = alloca ptr, align 8
  %18 = alloca ptr, align 8
  %19 = alloca ptr, align 8
  %20 = alloca ptr, align 8
  %21 = alloca ptr, align 8
  store ptr %0, ptr %6, align 8, !tbaa !3
  store ptr %1, ptr %7, align 8, !tbaa !3
  store i64 %2, ptr %8, align 8, !tbaa !7
  store i64 %3, ptr %9, align 8, !tbaa !7
  store i32 %4, ptr %10, align 4, !tbaa !27
  call void @llvm.lifetime.start.p0(i64 8, ptr %11) #3
  %22 = load i64, ptr %9, align 8, !tbaa !7
  %23 = load i64, ptr %8, align 8, !tbaa !7
  %24 = icmp ugt i64 %22, %23
  br i1 %24, label %25, label %29

25:                                               ; preds = %5
  %26 = load i64, ptr %9, align 8, !tbaa !7
  %27 = load i64, ptr %8, align 8, !tbaa !7
  %28 = sub i64 %26, %27
  br label %30

29:                                               ; preds = %5
  br label %30

30:                                               ; preds = %29, %25
  %31 = phi i64 [ %28, %25 ], [ 0, %29 ]
  store i64 %31, ptr %11, align 8, !tbaa !7
  call void @llvm.lifetime.start.p0(i64 4, ptr %12) #3
  call void @llvm.lifetime.start.p0(i64 4, ptr %13) #3
  call void @llvm.lifetime.start.p0(i64 1, ptr %14) #3
  call void @llvm.lifetime.start.p0(i64 4, ptr %15) #3
  %32 = load i8, ptr @_prte_crc_table_initialized, align 1, !tbaa !54, !range !56, !noundef !57
  %33 = trunc i8 %32 to i1
  br i1 %33, label %35, label %34

34:                                               ; preds = %30
  call void @prte_initialize_crc_table()
  br label %35

35:                                               ; preds = %34, %30
  %36 = load ptr, ptr %6, align 8, !tbaa !3
  %37 = ptrtoint ptr %36 to i64
  %38 = and i64 %37, 3
  %39 = icmp ne i64 %38, 0
  br i1 %39, label %40, label %41

40:                                               ; preds = %35
  br i1 false, label %42, label %136

41:                                               ; preds = %35
  br i1 true, label %42, label %136

42:                                               ; preds = %41, %40
  %43 = load ptr, ptr %7, align 8, !tbaa !3
  %44 = ptrtoint ptr %43 to i64
  %45 = and i64 %44, 3
  %46 = icmp ne i64 %45, 0
  br i1 %46, label %47, label %48

47:                                               ; preds = %42
  br i1 false, label %49, label %136

48:                                               ; preds = %42
  br i1 true, label %49, label %136

49:                                               ; preds = %48, %47
  call void @llvm.lifetime.start.p0(i64 8, ptr %16) #3
  %50 = load ptr, ptr %6, align 8, !tbaa !3
  store ptr %50, ptr %16, align 8, !tbaa !25
  call void @llvm.lifetime.start.p0(i64 8, ptr %17) #3
  %51 = load ptr, ptr %7, align 8, !tbaa !3
  store ptr %51, ptr %17, align 8, !tbaa !25
  call void @llvm.lifetime.start.p0(i64 8, ptr %18) #3
  call void @llvm.lifetime.start.p0(i64 8, ptr %19) #3
  br label %52

52:                                               ; preds = %84, %49
  %53 = load i64, ptr %8, align 8, !tbaa !7
  %54 = icmp uge i64 %53, 4
  br i1 %54, label %55, label %87

55:                                               ; preds = %52
  %56 = load ptr, ptr %16, align 8, !tbaa !25
  %57 = getelementptr inbounds nuw i32, ptr %56, i32 1
  store ptr %57, ptr %16, align 8, !tbaa !25
  %58 = load i32, ptr %56, align 4, !tbaa !27
  store i32 %58, ptr %15, align 4, !tbaa !27
  %59 = load i32, ptr %15, align 4, !tbaa !27
  %60 = load ptr, ptr %17, align 8, !tbaa !25
  %61 = getelementptr inbounds nuw i32, ptr %60, i32 1
  store ptr %61, ptr %17, align 8, !tbaa !25
  store i32 %59, ptr %60, align 4, !tbaa !27
  store ptr %15, ptr %18, align 8, !tbaa !58
  store i32 0, ptr %13, align 4, !tbaa !27
  br label %62

62:                                               ; preds = %81, %55
  %63 = load i32, ptr %13, align 4, !tbaa !27
  %64 = icmp slt i32 %63, 4
  br i1 %64, label %65, label %84

65:                                               ; preds = %62
  %66 = load i32, ptr %10, align 4, !tbaa !27
  %67 = lshr i32 %66, 24
  %68 = load ptr, ptr %18, align 8, !tbaa !58
  %69 = getelementptr inbounds nuw i8, ptr %68, i32 1
  store ptr %69, ptr %18, align 8, !tbaa !58
  %70 = load i8, ptr %68, align 1, !tbaa !60
  %71 = zext i8 %70 to i32
  %72 = xor i32 %67, %71
  %73 = and i32 %72, 255
  store i32 %73, ptr %12, align 4, !tbaa !27
  %74 = load i32, ptr %10, align 4, !tbaa !27
  %75 = shl i32 %74, 8
  %76 = load i32, ptr %12, align 4, !tbaa !27
  %77 = sext i32 %76 to i64
  %78 = getelementptr inbounds [256 x i32], ptr @_prte_crc_table, i64 0, i64 %77
  %79 = load i32, ptr %78, align 4, !tbaa !27
  %80 = xor i32 %75, %79
  store i32 %80, ptr %10, align 4, !tbaa !27
  br label %81

81:                                               ; preds = %65
  %82 = load i32, ptr %13, align 4, !tbaa !27
  %83 = add nsw i32 %82, 1
  store i32 %83, ptr %13, align 4, !tbaa !27
  br label %62, !llvm.loop !61

84:                                               ; preds = %62
  %85 = load i64, ptr %8, align 8, !tbaa !7
  %86 = sub i64 %85, 4
  store i64 %86, ptr %8, align 8, !tbaa !7
  br label %52, !llvm.loop !62

87:                                               ; preds = %52
  %88 = load ptr, ptr %16, align 8, !tbaa !25
  store ptr %88, ptr %18, align 8, !tbaa !58
  %89 = load ptr, ptr %17, align 8, !tbaa !25
  store ptr %89, ptr %19, align 8, !tbaa !58
  br label %90

90:                                               ; preds = %94, %87
  %91 = load i64, ptr %8, align 8, !tbaa !7
  %92 = add i64 %91, -1
  store i64 %92, ptr %8, align 8, !tbaa !7
  %93 = icmp ne i64 %91, 0
  br i1 %93, label %94, label %114

94:                                               ; preds = %90
  %95 = load ptr, ptr %18, align 8, !tbaa !58
  %96 = getelementptr inbounds nuw i8, ptr %95, i32 1
  store ptr %96, ptr %18, align 8, !tbaa !58
  %97 = load i8, ptr %95, align 1, !tbaa !60
  store i8 %97, ptr %14, align 1, !tbaa !60
  %98 = load i8, ptr %14, align 1, !tbaa !60
  %99 = load ptr, ptr %19, align 8, !tbaa !58
  %100 = getelementptr inbounds nuw i8, ptr %99, i32 1
  store ptr %100, ptr %19, align 8, !tbaa !58
  store i8 %98, ptr %99, align 1, !tbaa !60
  %101 = load i32, ptr %10, align 4, !tbaa !27
  %102 = lshr i32 %101, 24
  %103 = load i8, ptr %14, align 1, !tbaa !60
  %104 = zext i8 %103 to i32
  %105 = xor i32 %102, %104
  %106 = and i32 %105, 255
  store i32 %106, ptr %12, align 4, !tbaa !27
  %107 = load i32, ptr %10, align 4, !tbaa !27
  %108 = shl i32 %107, 8
  %109 = load i32, ptr %12, align 4, !tbaa !27
  %110 = sext i32 %109 to i64
  %111 = getelementptr inbounds [256 x i32], ptr @_prte_crc_table, i64 0, i64 %110
  %112 = load i32, ptr %111, align 4, !tbaa !27
  %113 = xor i32 %108, %112
  store i32 %113, ptr %10, align 4, !tbaa !27
  br label %90, !llvm.loop !63

114:                                              ; preds = %90
  br label %115

115:                                              ; preds = %119, %114
  %116 = load i64, ptr %11, align 8, !tbaa !7
  %117 = add i64 %116, -1
  store i64 %117, ptr %11, align 8, !tbaa !7
  %118 = icmp ne i64 %116, 0
  br i1 %118, label %119, label %135

119:                                              ; preds = %115
  %120 = load i32, ptr %10, align 4, !tbaa !27
  %121 = lshr i32 %120, 24
  %122 = load ptr, ptr %18, align 8, !tbaa !58
  %123 = getelementptr inbounds nuw i8, ptr %122, i32 1
  store ptr %123, ptr %18, align 8, !tbaa !58
  %124 = load i8, ptr %122, align 1, !tbaa !60
  %125 = zext i8 %124 to i32
  %126 = xor i32 %121, %125
  %127 = and i32 %126, 255
  store i32 %127, ptr %12, align 4, !tbaa !27
  %128 = load i32, ptr %10, align 4, !tbaa !27
  %129 = shl i32 %128, 8
  %130 = load i32, ptr %12, align 4, !tbaa !27
  %131 = sext i32 %130 to i64
  %132 = getelementptr inbounds [256 x i32], ptr @_prte_crc_table, i64 0, i64 %131
  %133 = load i32, ptr %132, align 4, !tbaa !27
  %134 = xor i32 %129, %133
  store i32 %134, ptr %10, align 4, !tbaa !27
  br label %115, !llvm.loop !64

135:                                              ; preds = %115
  call void @llvm.lifetime.end.p0(i64 8, ptr %19) #3
  call void @llvm.lifetime.end.p0(i64 8, ptr %18) #3
  call void @llvm.lifetime.end.p0(i64 8, ptr %17) #3
  call void @llvm.lifetime.end.p0(i64 8, ptr %16) #3
  br label %185

136:                                              ; preds = %48, %47, %41, %40
  call void @llvm.lifetime.start.p0(i64 8, ptr %20) #3
  %137 = load ptr, ptr %6, align 8, !tbaa !3
  store ptr %137, ptr %20, align 8, !tbaa !58
  call void @llvm.lifetime.start.p0(i64 8, ptr %21) #3
  %138 = load ptr, ptr %7, align 8, !tbaa !3
  store ptr %138, ptr %21, align 8, !tbaa !58
  br label %139

139:                                              ; preds = %143, %136
  %140 = load i64, ptr %8, align 8, !tbaa !7
  %141 = add i64 %140, -1
  store i64 %141, ptr %8, align 8, !tbaa !7
  %142 = icmp ne i64 %140, 0
  br i1 %142, label %143, label %163

143:                                              ; preds = %139
  %144 = load ptr, ptr %20, align 8, !tbaa !58
  %145 = getelementptr inbounds nuw i8, ptr %144, i32 1
  store ptr %145, ptr %20, align 8, !tbaa !58
  %146 = load i8, ptr %144, align 1, !tbaa !60
  store i8 %146, ptr %14, align 1, !tbaa !60
  %147 = load i8, ptr %14, align 1, !tbaa !60
  %148 = load ptr, ptr %21, align 8, !tbaa !58
  %149 = getelementptr inbounds nuw i8, ptr %148, i32 1
  store ptr %149, ptr %21, align 8, !tbaa !58
  store i8 %147, ptr %148, align 1, !tbaa !60
  %150 = load i32, ptr %10, align 4, !tbaa !27
  %151 = lshr i32 %150, 24
  %152 = load i8, ptr %14, align 1, !tbaa !60
  %153 = zext i8 %152 to i32
  %154 = xor i32 %151, %153
  %155 = and i32 %154, 255
  store i32 %155, ptr %12, align 4, !tbaa !27
  %156 = load i32, ptr %10, align 4, !tbaa !27
  %157 = shl i32 %156, 8
  %158 = load i32, ptr %12, align 4, !tbaa !27
  %159 = sext i32 %158 to i64
  %160 = getelementptr inbounds [256 x i32], ptr @_prte_crc_table, i64 0, i64 %159
  %161 = load i32, ptr %160, align 4, !tbaa !27
  %162 = xor i32 %157, %161
  store i32 %162, ptr %10, align 4, !tbaa !27
  br label %139, !llvm.loop !65

163:                                              ; preds = %139
  br label %164

164:                                              ; preds = %168, %163
  %165 = load i64, ptr %11, align 8, !tbaa !7
  %166 = add i64 %165, -1
  store i64 %166, ptr %11, align 8, !tbaa !7
  %167 = icmp ne i64 %165, 0
  br i1 %167, label %168, label %184

168:                                              ; preds = %164
  %169 = load i32, ptr %10, align 4, !tbaa !27
  %170 = lshr i32 %169, 24
  %171 = load ptr, ptr %20, align 8, !tbaa !58
  %172 = getelementptr inbounds nuw i8, ptr %171, i32 1
  store ptr %172, ptr %20, align 8, !tbaa !58
  %173 = load i8, ptr %171, align 1, !tbaa !60
  %174 = zext i8 %173 to i32
  %175 = xor i32 %170, %174
  %176 = and i32 %175, 255
  store i32 %176, ptr %12, align 4, !tbaa !27
  %177 = load i32, ptr %10, align 4, !tbaa !27
  %178 = shl i32 %177, 8
  %179 = load i32, ptr %12, align 4, !tbaa !27
  %180 = sext i32 %179 to i64
  %181 = getelementptr inbounds [256 x i32], ptr @_prte_crc_table, i64 0, i64 %180
  %182 = load i32, ptr %181, align 4, !tbaa !27
  %183 = xor i32 %178, %182
  store i32 %183, ptr %10, align 4, !tbaa !27
  br label %164, !llvm.loop !66

184:                                              ; preds = %164
  call void @llvm.lifetime.end.p0(i64 8, ptr %21) #3
  call void @llvm.lifetime.end.p0(i64 8, ptr %20) #3
  br label %185

185:                                              ; preds = %184, %135
  %186 = load i32, ptr %10, align 4, !tbaa !27
  call void @llvm.lifetime.end.p0(i64 4, ptr %15) #3
  call void @llvm.lifetime.end.p0(i64 1, ptr %14) #3
  call void @llvm.lifetime.end.p0(i64 4, ptr %13) #3
  call void @llvm.lifetime.end.p0(i64 4, ptr %12) #3
  call void @llvm.lifetime.end.p0(i64 8, ptr %11) #3
  ret i32 %186
}