; Function Attrs: nofree norecurse nosync nounwind memory(readwrite, inaccessiblemem: none) uwtable
define i32 @prte_bcopy_uicrc_partial(ptr noundef %0, ptr noundef %1, i64 noundef %2, i64 noundef %3, i32 noundef %4) local_unnamed_addr #0 {
  %6 = alloca i32, align 4
  %7 = tail call i64 @llvm.usub.sat.i64(i64 %3, i64 %2)
  call void @llvm.lifetime.start.p0(i64 4, ptr nonnull %6) #7
  %.b63 = load i1, ptr @_prte_crc_table_initialized, align 1
  br i1 %.b63, label %15, label %.preheader75

.preheader75:                                     ; preds = %5, %13
  %indvars.iv.i = phi i64 [ %indvars.iv.next.i, %13 ], [ 0, %5 ]
  %indvars.iv.tr.i = trunc i64 %indvars.iv.i to i32
  %8 = shl i32 %indvars.iv.tr.i, 24
  br label %9

9:                                                ; preds = %9, %.preheader75
  %.014.i = phi i32 [ %8, %.preheader75 ], [ %.1.i, %9 ]
  %.01013.i = phi i32 [ 0, %.preheader75 ], [ %12, %9 ]
  %10 = shl i32 %.014.i, 1
  %11 = xor i32 %10, 79764919
  %.not12.i = icmp slt i32 %.014.i, 0
  %.1.i = select i1 %.not12.i, i32 %11, i32 %10
  %12 = add nuw nsw i32 %.01013.i, 1
  %exitcond.not.i = icmp eq i32 %12, 8
  br i1 %exitcond.not.i, label %13, label %9, !llvm.loop !46

13:                                               ; preds = %9
  %14 = getelementptr inbounds nuw [256 x i32], ptr @_prte_crc_table, i64 0, i64 %indvars.iv.i
  store i32 %.1.i, ptr %14, align 4, !tbaa !21
  %indvars.iv.next.i = add nuw nsw i64 %indvars.iv.i, 1
  %exitcond17.not.i = icmp eq i64 %indvars.iv.next.i, 256
  br i1 %exitcond17.not.i, label %prte_initialize_crc_table.exit, label %.preheader75, !llvm.loop !47

prte_initialize_crc_table.exit:                   ; preds = %13
  store i1 true, ptr @_prte_crc_table_initialized, align 1
  br label %15

15:                                               ; preds = %prte_initialize_crc_table.exit, %5
  %16 = ptrtoint ptr %0 to i64
  %17 = ptrtoint ptr %1 to i64
  %18 = or i64 %17, %16
  %19 = and i64 %18, 3
  %or.cond = icmp eq i64 %19, 0
  br i1 %or.cond, label %.preheader71, label %.preheader74

.preheader74:                                     ; preds = %15
  %.not6776 = icmp eq i64 %2, 0
  br i1 %.not6776, label %.preheader72, label %.lr.ph

.preheader71:                                     ; preds = %15
  %20 = icmp ugt i64 %2, 3
  br i1 %20, label %.lr.ph95, label %.preheader70

.preheader70:                                     ; preds = %32, %.preheader71
  %.060.lcssa = phi i64 [ %2, %.preheader71 ], [ %35, %32 ]
  %.057.lcssa = phi i32 [ %4, %.preheader71 ], [ %31, %32 ]
  %.053.lcssa = phi ptr [ %0, %.preheader71 ], [ %33, %32 ]
  %.052.lcssa = phi ptr [ %1, %.preheader71 ], [ %34, %32 ]
  %.not65100 = icmp eq i64 %.060.lcssa, 0
  br i1 %.not65100, label %.preheader, label %.lr.ph105

.lr.ph95:                                         ; preds = %.preheader71, %32
  %.05294 = phi ptr [ %34, %32 ], [ %1, %.preheader71 ]
  %.05393 = phi ptr [ %33, %32 ], [ %0, %.preheader71 ]
  %.05792 = phi i32 [ %31, %32 ], [ %4, %.preheader71 ]
  %.06091 = phi i64 [ %35, %32 ], [ %2, %.preheader71 ]
  %21 = load i32, ptr %.05393, align 4, !tbaa !21
  store i32 %21, ptr %6, align 4, !tbaa !21
  store i32 %21, ptr %.05294, align 4, !tbaa !21
  br label %22

22:                                               ; preds = %.lr.ph95, %22
  %.05090.idx = phi i64 [ 0, %.lr.ph95 ], [ %.05090.add, %22 ]
  %.15888 = phi i32 [ %.05792, %.lr.ph95 ], [ %31, %22 ]
  %.05090.ptr = getelementptr inbounds nuw i8, ptr %6, i64 %.05090.idx
  %23 = lshr i32 %.15888, 24
  %.05090.add = add nuw nsw i64 %.05090.idx, 1
  %24 = load i8, ptr %.05090.ptr, align 1, !tbaa !48
  %25 = zext i8 %24 to i32
  %26 = xor i32 %23, %25
  %27 = shl i32 %.15888, 8
  %28 = zext nneg i32 %26 to i64
  %29 = getelementptr inbounds nuw [256 x i32], ptr @_prte_crc_table, i64 0, i64 %28
  %30 = load i32, ptr %29, align 4, !tbaa !21
  %31 = xor i32 %30, %27
  %exitcond.not = icmp eq i64 %.05090.idx, 3
  br i1 %exitcond.not, label %32, label %22, !llvm.loop !49

32:                                               ; preds = %22
  %33 = getelementptr inbounds nuw i8, ptr %.05393, i64 4
  %34 = getelementptr inbounds nuw i8, ptr %.05294, i64 4
  %35 = add i64 %.06091, -4
  %36 = icmp ugt i64 %35, 3
  br i1 %36, label %.lr.ph95, label %.preheader70, !llvm.loop !50

.preheader:                                       ; preds = %.lr.ph105, %.preheader70
  %.259.lcssa = phi i32 [ %.057.lcssa, %.preheader70 ], [ %48, %.lr.ph105 ]
  %.151.lcssa = phi ptr [ %.053.lcssa, %.preheader70 ], [ %38, %.lr.ph105 ]
  %.not66108.not = icmp ugt i64 %3, %2
  br i1 %.not66108.not, label %.lr.ph112, label %.loopexit

.lr.ph105:                                        ; preds = %.preheader70, %.lr.ph105
  %.049104 = phi ptr [ %40, %.lr.ph105 ], [ %.052.lcssa, %.preheader70 ]
  %.151103 = phi ptr [ %38, %.lr.ph105 ], [ %.053.lcssa, %.preheader70 ]
  %.259102 = phi i32 [ %48, %.lr.ph105 ], [ %.057.lcssa, %.preheader70 ]
  %.161101 = phi i64 [ %37, %.lr.ph105 ], [ %.060.lcssa, %.preheader70 ]
  %37 = add i64 %.161101, -1
  %38 = getelementptr inbounds nuw i8, ptr %.151103, i64 1
  %39 = load i8, ptr %.151103, align 1, !tbaa !48
  %40 = getelementptr inbounds nuw i8, ptr %.049104, i64 1
  store i8 %39, ptr %.049104, align 1, !tbaa !48
  %41 = lshr i32 %.259102, 24
  %42 = zext i8 %39 to i32
  %43 = xor i32 %41, %42
  %44 = shl i32 %.259102, 8
  %45 = zext nneg i32 %43 to i64
  %46 = getelementptr inbounds nuw [256 x i32], ptr @_prte_crc_table, i64 0, i64 %45
  %47 = load i32, ptr %46, align 4, !tbaa !21
  %48 = xor i32 %47, %44
  %.not65 = icmp eq i64 %37, 0
  br i1 %.not65, label %.preheader, label %.lr.ph105, !llvm.loop !51

.lr.ph112:                                        ; preds = %.preheader, %.lr.ph112
  %.2111 = phi ptr [ %51, %.lr.ph112 ], [ %.151.lcssa, %.preheader ]
  %.055110 = phi i64 [ %49, %.lr.ph112 ], [ %7, %.preheader ]
  %.3109 = phi i32 [ %59, %.lr.ph112 ], [ %.259.lcssa, %.preheader ]
  %49 = add i64 %.055110, -1
  %50 = lshr i32 %.3109, 24
  %51 = getelementptr inbounds nuw i8, ptr %.2111, i64 1
  %52 = load i8, ptr %.2111, align 1, !tbaa !48
  %53 = zext i8 %52 to i32
  %54 = xor i32 %50, %53
  %55 = shl i32 %.3109, 8
  %56 = zext nneg i32 %54 to i64
  %57 = getelementptr inbounds nuw [256 x i32], ptr @_prte_crc_table, i64 0, i64 %56
  %58 = load i32, ptr %57, align 4, !tbaa !21
  %59 = xor i32 %58, %55
  %.not66 = icmp eq i64 %49, 0
  br i1 %.not66, label %.loopexit, label %.lr.ph112, !llvm.loop !52

.preheader72:                                     ; preds = %.lr.ph, %.preheader74
  %.5.lcssa = phi i32 [ %4, %.preheader74 ], [ %71, %.lr.ph ]
  %.048.lcssa = phi ptr [ %0, %.preheader74 ], [ %61, %.lr.ph ]
  %.not6882.not = icmp ugt i64 %3, %2
  br i1 %.not6882.not, label %.lr.ph86, label %.loopexit

.lr.ph:                                           ; preds = %.preheader74, %.lr.ph
  %.080 = phi ptr [ %63, %.lr.ph ], [ %1, %.preheader74 ]
  %.04879 = phi ptr [ %61, %.lr.ph ], [ %0, %.preheader74 ]
  %.578 = phi i32 [ %71, %.lr.ph ], [ %4, %.preheader74 ]
  %.26277 = phi i64 [ %60, %.lr.ph ], [ %2, %.preheader74 ]
  %60 = add i64 %.26277, -1
  %61 = getelementptr inbounds nuw i8, ptr %.04879, i64 1
  %62 = load i8, ptr %.04879, align 1, !tbaa !48
  %63 = getelementptr inbounds nuw i8, ptr %.080, i64 1
  store i8 %62, ptr %.080, align 1, !tbaa !48
  %64 = lshr i32 %.578, 24
  %65 = zext i8 %62 to i32
  %66 = xor i32 %64, %65
  %67 = shl i32 %.578, 8
  %68 = zext nneg i32 %66 to i64
  %69 = getelementptr inbounds nuw [256 x i32], ptr @_prte_crc_table, i64 0, i64 %68
  %70 = load i32, ptr %69, align 4, !tbaa !21
  %71 = xor i32 %70, %67
  %.not67 = icmp eq i64 %60, 0
  br i1 %.not67, label %.preheader72, label %.lr.ph, !llvm.loop !53

.lr.ph86:                                         ; preds = %.preheader72, %.lr.ph86
  %.185 = phi ptr [ %74, %.lr.ph86 ], [ %.048.lcssa, %.preheader72 ]
  %.15684 = phi i64 [ %72, %.lr.ph86 ], [ %7, %.preheader72 ]
  %.683 = phi i32 [ %82, %.lr.ph86 ], [ %.5.lcssa, %.preheader72 ]
  %72 = add i64 %.15684, -1
  %73 = lshr i32 %.683, 24
  %74 = getelementptr inbounds nuw i8, ptr %.185, i64 1
  %75 = load i8, ptr %.185, align 1, !tbaa !48
  %76 = zext i8 %75 to i32
  %77 = xor i32 %73, %76
  %78 = shl i32 %.683, 8
  %79 = zext nneg i32 %77 to i64
  %80 = getelementptr inbounds nuw [256 x i32], ptr @_prte_crc_table, i64 0, i64 %79
  %81 = load i32, ptr %80, align 4, !tbaa !21
  %82 = xor i32 %81, %78
  %.not68 = icmp eq i64 %72, 0
  br i1 %.not68, label %.loopexit, label %.lr.ph86, !llvm.loop !54

.loopexit:                                        ; preds = %.lr.ph86, %.lr.ph112, %.preheader72, %.preheader
  %.4 = phi i32 [ %.259.lcssa, %.preheader ], [ %.5.lcssa, %.preheader72 ], [ %59, %.lr.ph112 ], [ %82, %.lr.ph86 ]
  call void @llvm.lifetime.end.p0(i64 4, ptr nonnull %6) #7
  ret i32 %.4
}